target datalayout = "e-m:e-p270:32:32-p271:32:32-p272:64:64-i64:64-i128:128-f80:128-n8:16:32:64-S128"
target triple = "x86_64-pc-linux-gnu"

%"class.__cxxabiv1::(anonymous namespace)::st_heap_block2" = type <{ ptr, ptr, i8, [7 x i8] }>
%"class.__cxxabiv1::(anonymous namespace)::st_cxa_cleanup" = type <{ ptr, ptr, i64, ptr, i8, [7 x i8] }>

; Function Attrs: mustprogress nounwind uwtable
define internal void @_ZN10__cxxabiv112_GLOBAL__N_114st_cxa_cleanup7releaseEv(ptr noundef nonnull align 8 dereferenceable(33) %0) #4 align 2 {
  %2 = alloca ptr, align 8
  store ptr %0, ptr %2, align 8, !tbaa !31
  %3 = load ptr, ptr %2, align 8
  %4 = getelementptr inbounds nuw %"class.__cxxabiv1::(anonymous namespace)::st_cxa_cleanup", ptr %3, i32 0, i32 4
  store i8 0, ptr %4, align 8, !tbaa !39
  ret void
}

; Function Attrs: mustprogress nounwind uwtable
define internal void @_ZN10__cxxabiv112_GLOBAL__N_114st_cxa_cleanupC2EPvRmmPFvS2_E(ptr noundef nonnull align 8 dereferenceable(33) %0, ptr noundef %1, ptr noundef nonnull align 8 dereferenceable(8) %2, i64 noundef %3, ptr noundef %4) unnamed_addr #4 align 2 {
  %6 = alloca ptr, align 8
  %7 = alloca ptr, align 8
  %8 = alloca ptr, align 8
  %9 = alloca i64, align 8
  %10 = alloca ptr, align 8
  store ptr %0, ptr %6, align 8, !tbaa !31
  store ptr %1, ptr %7, align 8, !tbaa !8
  store ptr %2, ptr %8, align 8, !tbaa !33
  store i64 %3, ptr %9, align 8, !tbaa !4
  store ptr %4, ptr %10, align 8, !tbaa !8
  %11 = load ptr, ptr %6, align 8
  %12 = getelementptr inbounds nuw %"class.__cxxabiv1::(anonymous namespace)::st_cxa_cleanup", ptr %11, i32 0, i32 0
  %13 = load ptr, ptr %7, align 8, !tbaa !8
  store ptr %13, ptr %12, align 8, !tbaa !35
  %14 = getelementptr inbounds nuw %"class.__cxxabiv1::(anonymous namespace)::st_cxa_cleanup", ptr %11, i32 0, i32 1
  %15 = load ptr, ptr %8, align 8, !tbaa !33
  store ptr %15, ptr %14, align 8, !tbaa !33
  %16 = getelementptr inbounds nuw %"class.__cxxabiv1::(anonymous namespace)::st_cxa_cleanup", ptr %11, i32 0, i32 2
  %17 = load i64, ptr %9, align 8, !tbaa !4
  store i64 %17, ptr %16, align 8, !tbaa !37
  %18 = getelementptr inbounds nuw %"class.__cxxabiv1::(anonymous namespace)::st_cxa_cleanup", ptr %11, i32 0, i32 3
  %19 = load ptr, ptr %10, align 8, !tbaa !8
  store ptr %19, ptr %18, align 8, !tbaa !38
  %20 = getelementptr inbounds nuw %"class.__cxxabiv1::(anonymous namespace)::st_cxa_cleanup", ptr %11, i32 0, i32 4
  store i8 1, ptr %20, align 8, !tbaa !39
  ret void
}

; Function Attrs: mustprogress nounwind uwtable
define internal noundef zeroext i1 @_ZN10__cxxabiv112_GLOBAL__N_112add_overflowEmmPm(i64 noundef %0, i64 noundef %1, ptr noundef %2) #4 {
  %4 = alloca i64, align 8
  %5 = alloca i64, align 8
  %6 = alloca ptr, align 8
  store i64 %0, ptr %4, align 8, !tbaa !4
  store i64 %1, ptr %5, align 8, !tbaa !4
  store ptr %2, ptr %6, align 8, !tbaa !33
  %7 = load i64, ptr %4, align 8, !tbaa !4
  %8 = load i64, ptr %5, align 8, !tbaa !4
  %9 = load ptr, ptr %6, align 8, !tbaa !33
  %10 = call { i64, i1 } @llvm.uadd.with.overflow.i64(i64 %7, i64 %8)
  %11 = extractvalue { i64, i1 } %10, 1
  %12 = extractvalue { i64, i1 } %10, 0
  store i64 %12, ptr %9, align 8
  ret i1 %11
}

; Function Attrs: mustprogress nounwind uwtable
define internal noundef zeroext i1 @_ZN10__cxxabiv112_GLOBAL__N_112mul_overflowEmmPm(i64 noundef %0, i64 noundef %1, ptr noundef %2) #4 {
  %4 = alloca i64, align 8
  %5 = alloca i64, align 8
  %6 = alloca ptr, align 8
  store i64 %0, ptr %4, align 8, !tbaa !4
  store i64 %1, ptr %5, align 8, !tbaa !4
  store ptr %2, ptr %6, align 8, !tbaa !33
  %7 = load i64, ptr %4, align 8, !tbaa !4
  %8 = load i64, ptr %5, align 8, !tbaa !4
  %9 = load ptr, ptr %6, align 8, !tbaa !33
  %10 = call { i64, i1 } @llvm.umul.with.overflow.i64(i64 %7, i64 %8)
  %11 = extractvalue { i64, i1 } %10, 1
  %12 = extractvalue { i64, i1 } %10, 0
  store i64 %12, ptr %9, align 8
  ret i1 %11
}

; Function Attrs: mustprogress nounwind uwtable
define internal void @_ZN10__cxxabiv112_GLOBAL__N_114st_heap_block27releaseEv(ptr noundef nonnull align 8 dereferenceable(17) %0) #4 align 2 {
  %2 = alloca ptr, align 8
  store ptr %0, ptr %2, align 8, !tbaa !12
  %3 = load ptr, ptr %2, align 8
  %4 = getelementptr inbounds nuw %"class.__cxxabiv1::(anonymous namespace)::st_heap_block2", ptr %3, i32 0, i32 2
  store i8 0, ptr %4, align 8, !tbaa !18
  ret void
}

; Function Attrs: mustprogress uwtable
define dso_local void @__cxa_vec_ctor(ptr noundef %0, i64 noundef %1, i64 noundef %2, ptr noundef %3, ptr noundef %4) #0 personality ptr @__gxx_personality_v0 {
  %6 = alloca ptr, align 8
  %7 = alloca i64, align 8
  %8 = alloca i64, align 8
  %9 = alloca ptr, align 8
  %10 = alloca ptr, align 8
  %11 = alloca i64, align 8
  %12 = alloca ptr, align 8
  %13 = alloca %"class.__cxxabiv1::(anonymous namespace)::st_cxa_cleanup", align 8
  %14 = alloca ptr, align 8
  %15 = alloca i32, align 4
  store ptr %0, ptr %6, align 8, !tbaa !8
  store i64 %1, ptr %7, align 8, !tbaa !4
  store i64 %2, ptr %8, align 8, !tbaa !4
  store ptr %3, ptr %9, align 8, !tbaa !8
  store ptr %4, ptr %10, align 8, !tbaa !8
  %16 = load ptr, ptr %9, align 8, !tbaa !8
  %17 = icmp ne ptr null, %16
  br i1 %17, label %18, label %43

18:                                               ; preds = %5
  call void @llvm.lifetime.start.p0(i64 8, ptr %11) #10
  call void @llvm.lifetime.start.p0(i64 8, ptr %12) #10
  %19 = load ptr, ptr %6, align 8, !tbaa !8
  store ptr %19, ptr %12, align 8, !tbaa !10
  call void @llvm.lifetime.start.p0(i64 40, ptr %13) #10
  %20 = load ptr, ptr %6, align 8, !tbaa !8
  %21 = load i64, ptr %8, align 8, !tbaa !4
  %22 = load ptr, ptr %10, align 8, !tbaa !8
  call void @_ZN10__cxxabiv112_GLOBAL__N_114st_cxa_cleanupC2EPvRmmPFvS2_E(ptr noundef nonnull align 8 dereferenceable(33) %13, ptr noundef %20, ptr noundef nonnull align 8 dereferenceable(8) %11, i64 noundef %21, ptr noundef %22)
  store i64 0, ptr %11, align 8, !tbaa !4
  br label %23

23:                                               ; preds = %31, %18
  %24 = load i64, ptr %11, align 8, !tbaa !4
  %25 = load i64, ptr %7, align 8, !tbaa !4
  %26 = icmp ult i64 %24, %25
  br i1 %26, label %27, label %41

27:                                               ; preds = %23
  %28 = load ptr, ptr %9, align 8, !tbaa !8
  %29 = load ptr, ptr %12, align 8, !tbaa !10
  invoke void %28(ptr noundef %29)
          to label %30 unwind label %37

30:                                               ; preds = %27
  br label %31

31:                                               ; preds = %30
  %32 = load i64, ptr %11, align 8, !tbaa !4
  %33 = add i64 %32, 1
  store i64 %33, ptr %11, align 8, !tbaa !4
  %34 = load i64, ptr %8, align 8, !tbaa !4
  %35 = load ptr, ptr %12, align 8, !tbaa !10
  %36 = getelementptr inbounds nuw i8, ptr %35, i64 %34
  store ptr %36, ptr %12, align 8, !tbaa !10
  br label %23, !llvm.loop !19

37:                                               ; preds = %41, %27
  %38 = landingpad { ptr, i32 }
          cleanup
  %39 = extractvalue { ptr, i32 } %38, 0
  store ptr %39, ptr %14, align 8
  %40 = extractvalue { ptr, i32 } %38, 1
  store i32 %40, ptr %15, align 4
  call void @_ZN10__cxxabiv112_GLOBAL__N_114st_cxa_cleanupD2Ev(ptr noundef nonnull align 8 dereferenceable(33) %13) #10
  call void @llvm.lifetime.end.p0(i64 40, ptr %13) #10
  call void @llvm.lifetime.end.p0(i64 8, ptr %12) #10
  call void @llvm.lifetime.end.p0(i64 8, ptr %11) #10
  br label %44

41:                                               ; preds = %23
  invoke void @_ZN10__cxxabiv112_GLOBAL__N_114st_cxa_cleanup7releaseEv(ptr noundef nonnull align 8 dereferenceable(33) %13)
          to label %42 unwind label %37

42:                                               ; preds = %41
  call void @_ZN10__cxxabiv112_GLOBAL__N_114st_cxa_cleanupD2Ev(ptr noundef nonnull align 8 dereferenceable(33) %13) #10
  call void @llvm.lifetime.end.p0(i64 40, ptr %13) #10
  call void @llvm.lifetime.end.p0(i64 8, ptr %12) #10
  call void @llvm.lifetime.end.p0(i64 8, ptr %11) #10
  br label %43

43:                                               ; preds = %42, %5
  ret void

44:                                               ; preds = %37
  %45 = load ptr, ptr %14, align 8
  %46 = load i32, ptr %15, align 4
  %47 = insertvalue { ptr, i32 } poison, ptr %45, 0
  %48 = insertvalue { ptr, i32 } %47, i32 %46, 1
  resume { ptr, i32 } %48
}

; Function Attrs: mustprogress nounwind uwtable
define internal void @_ZN10__cxxabiv112_GLOBAL__N_114st_heap_block2D2Ev(ptr noundef nonnull align 8 dereferenceable(17) %0) unnamed_addr #4 align 2 personality ptr @__gxx_personality_v0 {
  %2 = alloca ptr, align 8
  store ptr %0, ptr %2, align 8, !tbaa !12
  %3 = load ptr, ptr %2, align 8
  %4 = getelementptr inbounds nuw %"class.__cxxabiv1::(anonymous namespace)::st_heap_block2", ptr %3, i32 0, i32 2
  %5 = load i8, ptr %4, align 8, !tbaa !18, !range !21, !noundef !22
  %6 = trunc i8 %5 to i1
  br i1 %6, label %7, label %13

7:                                                ; preds = %1
  %8 = getelementptr inbounds nuw %"class.__cxxabiv1::(anonymous namespace)::st_heap_block2", ptr %3, i32 0, i32 0
  %9 = load ptr, ptr %8, align 8, !tbaa !14
  %10 = getelementptr inbounds nuw %"class.__cxxabiv1::(anonymous namespace)::st_heap_block2", ptr %3, i32 0, i32 1
  %11 = load ptr, ptr %10, align 8, !tbaa !17
  invoke void %9(ptr noundef %11)
          to label %12 unwind label %14

12:                                               ; preds = %7
  br label %13

13:                                               ; preds = %12, %1
  ret void

14:                                               ; preds = %7
  %15 = landingpad { ptr, i32 }
          catch ptr null
  %16 = extractvalue { ptr, i32 } %15, 0
  call void @__clang_call_terminate(ptr %16) #12
  unreachable
}

; Function Attrs: inlinehint mustprogress nounwind uwtable
define internal void @_ZN10__cxxabiv112_GLOBAL__N_119__set_element_countEPvm(ptr noundef %0, i64 noundef %1) #5 {
  %3 = alloca ptr, align 8
  %4 = alloca i64, align 8
  store ptr %0, ptr %3, align 8, !tbaa !8
  store i64 %1, ptr %4, align 8, !tbaa !4
  %5 = load i64, ptr %4, align 8, !tbaa !4
  %6 = load ptr, ptr %3, align 8, !tbaa !8
  %7 = getelementptr inbounds i64, ptr %6, i64 -1
  store i64 %5, ptr %7, align 8, !tbaa !4
  ret void
}

; Function Attrs: mustprogress nounwind uwtable
define internal void @_ZN10__cxxabiv112_GLOBAL__N_114st_heap_block2C2EPFvPvES2_(ptr noundef nonnull align 8 dereferenceable(17) %0, ptr noundef %1, ptr noundef %2) unnamed_addr #4 align 2 {
  %4 = alloca ptr, align 8
  %5 = alloca ptr, align 8
  %6 = alloca ptr, align 8
  store ptr %0, ptr %4, align 8, !tbaa !12
  store ptr %1, ptr %5, align 8, !tbaa !8
  store ptr %2, ptr %6, align 8, !tbaa !8
  %7 = load ptr, ptr %4, align 8
  %8 = getelementptr inbounds nuw %"class.__cxxabiv1::(anonymous namespace)::st_heap_block2", ptr %7, i32 0, i32 0
  %9 = load ptr, ptr %5, align 8, !tbaa !8
  store ptr %9, ptr %8, align 8, !tbaa !14
  %10 = getelementptr inbounds nuw %"class.__cxxabiv1::(anonymous namespace)::st_heap_block2", ptr %7, i32 0, i32 1
  %11 = load ptr, ptr %6, align 8, !tbaa !8
  store ptr %11, ptr %10, align 8, !tbaa !17
  %12 = getelementptr inbounds nuw %"class.__cxxabiv1::(anonymous namespace)::st_heap_block2", ptr %7, i32 0, i32 2
  store i8 1, ptr %12, align 8, !tbaa !18
  ret void
}

; Function Attrs: mustprogress uwtable
define internal noundef i64 @_ZN10__cxxabiv112_GLOBAL__N_134calculate_allocation_size_or_throwEmmm(i64 noundef %0, i64 noundef %1, i64 noundef %2) #0 {
  %4 = alloca i64, align 8
  %5 = alloca i64, align 8
  %6 = alloca i64, align 8
  %7 = alloca i64, align 8
  %8 = alloca i64, align 8
  store i64 %0, ptr %4, align 8, !tbaa !4
  store i64 %1, ptr %5, align 8, !tbaa !4
  store i64 %2, ptr %6, align 8, !tbaa !4
  call void @llvm.lifetime.start.p0(i64 8, ptr %7) #10
  %9 = load i64, ptr %4, align 8, !tbaa !4
  %10 = load i64, ptr %5, align 8, !tbaa !4
  %11 = call noundef zeroext i1 @_ZN10__cxxabiv112_GLOBAL__N_112mul_overflowEmmPm(i64 noundef %9, i64 noundef %10, ptr noundef %7)
  br i1 %11, label %12, label %13

12:                                               ; preds = %3
  call void @_ZN10__cxxabiv112_GLOBAL__N_126throw_bad_array_new_lengthEv() #11
  unreachable

13:                                               ; preds = %3
  call void @llvm.lifetime.start.p0(i64 8, ptr %8) #10
  %14 = load i64, ptr %7, align 8, !tbaa !4
  %15 = load i64, ptr %6, align 8, !tbaa !4
  %16 = call noundef zeroext i1 @_ZN10__cxxabiv112_GLOBAL__N_112add_overflowEmmPm(i64 noundef %14, i64 noundef %15, ptr noundef %8)
  br i1 %16, label %17, label %18

17:                                               ; preds = %13
  call void @_ZN10__cxxabiv112_GLOBAL__N_126throw_bad_array_new_lengthEv() #11
  unreachable

18:                                               ; preds = %13
  %19 = load i64, ptr %8, align 8, !tbaa !4
  call void @llvm.lifetime.end.p0(i64 8, ptr %8) #10
  call void @llvm.lifetime.end.p0(i64 8, ptr %7) #10
  ret i64 %19
}

; Function Attrs: mustprogress uwtable
define dso_local ptr @__cxa_vec_new2(i64 noundef %0, i64 noundef %1, i64 noundef %2, ptr noundef %3, ptr noundef %4, ptr noundef %5, ptr noundef %6) #0 personality ptr @__gxx_personality_v0 {
  %8 = alloca i64, align 8
  %9 = alloca i64, align 8
  %10 = alloca i64, align 8
  %11 = alloca ptr, align 8
  %12 = alloca ptr, align 8
  %13 = alloca ptr, align 8
  %14 = alloca ptr, align 8
  %15 = alloca i64, align 8
  %16 = alloca ptr, align 8
  %17 = alloca ptr, align 8
  %18 = alloca %"class.__cxxabiv1::(anonymous namespace)::st_heap_block2", align 8
  %19 = alloca ptr, align 8
  %20 = alloca i32, align 4
  store i64 %0, ptr %8, align 8, !tbaa !4
  store i64 %1, ptr %9, align 8, !tbaa !4
  store i64 %2, ptr %10, align 8, !tbaa !4
  store ptr %3, ptr %11, align 8, !tbaa !8
  store ptr %4, ptr %12, align 8, !tbaa !8
  store ptr %5, ptr %13, align 8, !tbaa !8
  store ptr %6, ptr %14, align 8, !tbaa !8
  call void @llvm.lifetime.start.p0(i64 8, ptr %15) #10
  %21 = load i64, ptr %8, align 8, !tbaa !4
  %22 = load i64, ptr %9, align 8, !tbaa !4
  %23 = load i64, ptr %10, align 8, !tbaa !4
  %24 = call noundef i64 @_ZN10__cxxabiv112_GLOBAL__N_134calculate_allocation_size_or_throwEmmm(i64 noundef %21, i64 noundef %22, i64 noundef %23)
  store i64 %24, ptr %15, align 8, !tbaa !4
  call void @llvm.lifetime.start.p0(i64 8, ptr %16) #10
  %25 = load ptr, ptr %13, align 8, !tbaa !8
  %26 = load i64, ptr %15, align 8, !tbaa !4
  %27 = call noundef ptr %25(i64 noundef %26)
  store ptr %27, ptr %16, align 8, !tbaa !10
  call void @llvm.lifetime.start.p0(i64 8, ptr %17) #10
  %28 = load ptr, ptr %16, align 8, !tbaa !10
  store ptr %28, ptr %17, align 8, !tbaa !10
  %29 = load ptr, ptr %17, align 8, !tbaa !10
  %30 = icmp ne ptr null, %29
  br i1 %30, label %31, label %55

31:                                               ; preds = %7
  call void @llvm.lifetime.start.p0(i64 24, ptr %18) #10
  %32 = load ptr, ptr %14, align 8, !tbaa !8
  %33 = load ptr, ptr %16, align 8, !tbaa !10
  call void @_ZN10__cxxabiv112_GLOBAL__N_114st_heap_block2C2EPFvPvES2_(ptr noundef nonnull align 8 dereferenceable(17) %18, ptr noundef %32, ptr noundef %33)
  %34 = load i64, ptr %10, align 8, !tbaa !4
  %35 = icmp ne i64 0, %34
  br i1 %35, label %36, label %47

36:                                               ; preds = %31
  %37 = load i64, ptr %10, align 8, !tbaa !4
  %38 = load ptr, ptr %17, align 8, !tbaa !10
  %39 = getelementptr inbounds nuw i8, ptr %38, i64 %37
  store ptr %39, ptr %17, align 8, !tbaa !10
  %40 = load ptr, ptr %17, align 8, !tbaa !10
  %41 = load i64, ptr %8, align 8, !tbaa !4
  invoke void @_ZN10__cxxabiv112_GLOBAL__N_119__set_element_countEPvm(ptr noundef %40, i64 noundef %41)
          to label %42 unwind label %43

42:                                               ; preds = %36
  br label %47

43:                                               ; preds = %53, %47, %36
  %44 = landingpad { ptr, i32 }
          cleanup
  %45 = extractvalue { ptr, i32 } %44, 0
  store ptr %45, ptr %19, align 8
  %46 = extractvalue { ptr, i32 } %44, 1
  store i32 %46, ptr %20, align 4
  call void @_ZN10__cxxabiv112_GLOBAL__N_114st_heap_block2D2Ev(ptr noundef nonnull align 8 dereferenceable(17) %18) #10
  call void @llvm.lifetime.end.p0(i64 24, ptr %18) #10
  call void @llvm.lifetime.end.p0(i64 8, ptr %17) #10
  call void @llvm.lifetime.end.p0(i64 8, ptr %16) #10
  call void @llvm.lifetime.end.p0(i64 8, ptr %15) #10
  br label %57

47:                                               ; preds = %42, %31
  %48 = load ptr, ptr %17, align 8, !tbaa !10
  %49 = load i64, ptr %8, align 8, !tbaa !4
  %50 = load i64, ptr %9, align 8, !tbaa !4
  %51 = load ptr, ptr %11, align 8, !tbaa !8
  %52 = load ptr, ptr %12, align 8, !tbaa !8
  invoke void @__cxa_vec_ctor(ptr noundef %48, i64 noundef %49, i64 noundef %50, ptr noundef %51, ptr noundef %52)
          to label %53 unwind label %43

53:                                               ; preds = %47
  invoke void @_ZN10__cxxabiv112_GLOBAL__N_114st_heap_block27releaseEv(ptr noundef nonnull align 8 dereferenceable(17) %18)
          to label %54 unwind label %43

54:                                               ; preds = %53
  call void @_ZN10__cxxabiv112_GLOBAL__N_114st_heap_block2D2Ev(ptr noundef nonnull align 8 dereferenceable(17) %18) #10
  call void @llvm.lifetime.end.p0(i64 24, ptr %18) #10
  br label %55

55:                                               ; preds = %54, %7
  %56 = load ptr, ptr %17, align 8, !tbaa !10
  call void @llvm.lifetime.end.p0(i64 8, ptr %17) #10
  call void @llvm.lifetime.end.p0(i64 8, ptr %16) #10
  call void @llvm.lifetime.end.p0(i64 8, ptr %15) #10
  ret ptr %56

57:                                               ; preds = %43
  %58 = load ptr, ptr %19, align 8
  %59 = load i32, ptr %20, align 4
  %60 = insertvalue { ptr, i32 } poison, ptr %58, 0
  %61 = insertvalue { ptr, i32 } %60, i32 %59, 1
  resume { ptr, i32 } %61
}