; Function Attrs: mustprogress uwtable
define dso_local ptr @__cxa_vec_new2(i64 noundef %0, i64 noundef %1, i64 noundef %2, ptr noundef readonly captures(address_is_null) %3, ptr noundef %4, ptr noundef readonly captures(none) %5, ptr noundef readonly captures(none) %6) local_unnamed_addr #0 personality ptr @__gxx_personality_v0 {
  %8 = alloca i64, align 8
  %9 = alloca %"class.__cxxabiv1::(anonymous namespace)::st_cxa_cleanup", align 8
  %10 = tail call { i64, i1 } @llvm.umul.with.overflow.i64(i64 %0, i64 %1)
  %11 = extractvalue { i64, i1 } %10, 1
  br i1 %11, label %12, label %13

12:                                               ; preds = %7
  tail call fastcc void @_ZN10__cxxabiv112_GLOBAL__N_126throw_bad_array_new_lengthEv() #11
  unreachable

13:                                               ; preds = %7
  %14 = extractvalue { i64, i1 } %10, 0
  %15 = tail call { i64, i1 } @llvm.uadd.with.overflow.i64(i64 %14, i64 %2)
  %16 = extractvalue { i64, i1 } %15, 1
  br i1 %16, label %17, label %_ZN10__cxxabiv112_GLOBAL__N_134calculate_allocation_size_or_throwEmmm.exit

17:                                               ; preds = %13
  tail call fastcc void @_ZN10__cxxabiv112_GLOBAL__N_126throw_bad_array_new_lengthEv() #11
  unreachable

_ZN10__cxxabiv112_GLOBAL__N_134calculate_allocation_size_or_throwEmmm.exit: ; preds = %13
  %18 = extractvalue { i64, i1 } %15, 0
  %19 = tail call noundef ptr %5(i64 noundef %18)
  %.not = icmp eq ptr %19, null
  br i1 %.not, label %_ZN10__cxxabiv112_GLOBAL__N_114st_heap_block2D2Ev.exit25, label %20

20:                                               ; preds = %_ZN10__cxxabiv112_GLOBAL__N_134calculate_allocation_size_or_throwEmmm.exit
  %.not24 = icmp eq i64 %2, 0
  br i1 %.not24, label %27, label %21

21:                                               ; preds = %20
  %22 = getelementptr inbounds nuw i8, ptr %19, i64 %2
  %23 = getelementptr inbounds i8, ptr %22, i64 -8
  store i64 %0, ptr %23, align 8, !tbaa !4
  br label %27

24:                                               ; preds = %.body
  %25 = landingpad { ptr, i32 }
          catch ptr null
  %26 = extractvalue { ptr, i32 } %25, 0
  call void @__clang_call_terminate(ptr %26) #13
  unreachable

_ZN10__cxxabiv112_GLOBAL__N_114st_heap_block2D2Ev.exit: ; preds = %.body
  resume { ptr, i32 } %38

27:                                               ; preds = %21, %20
  %.1 = phi ptr [ %22, %21 ], [ %19, %20 ]
  %.not.i = icmp eq ptr %3, null
  br i1 %.not.i, label %_ZN10__cxxabiv112_GLOBAL__N_114st_heap_block2D2Ev.exit25, label %28

28:                                               ; preds = %27
  call void @llvm.lifetime.start.p0(i64 8, ptr nonnull %8) #12
  call void @llvm.lifetime.start.p0(i64 40, ptr nonnull %9) #12
  store ptr %.1, ptr %9, align 8, !tbaa !8
  %29 = getelementptr inbounds nuw i8, ptr %9, i64 8
  store ptr %8, ptr %29, align 8, !tbaa !13
  %30 = getelementptr inbounds nuw i8, ptr %9, i64 16
  store i64 %1, ptr %30, align 8, !tbaa !14
  %31 = getelementptr inbounds nuw i8, ptr %9, i64 24
  store ptr %4, ptr %31, align 8, !tbaa !15
  %32 = getelementptr inbounds nuw i8, ptr %9, i64 32
  store i8 1, ptr %32, align 8, !tbaa !16
  store i64 0, ptr %8, align 8, !tbaa !4
  %.not13.i = icmp eq i64 %0, 0
  br i1 %.not13.i, label %_ZN10__cxxabiv112_GLOBAL__N_114st_cxa_cleanupD2Ev.exit.i, label %.lr.ph.i

.lr.ph.i:                                         ; preds = %28, %33
  %.012.i = phi ptr [ %36, %33 ], [ %.1, %28 ]
  invoke void %3(ptr noundef %.012.i)
          to label %33 unwind label %.body

33:                                               ; preds = %.lr.ph.i
  %34 = load i64, ptr %8, align 8, !tbaa !4
  %35 = add i64 %34, 1
  store i64 %35, ptr %8, align 8, !tbaa !4
  %36 = getelementptr inbounds nuw i8, ptr %.012.i, i64 %1
  %37 = icmp ult i64 %35, %0
  br i1 %37, label %.lr.ph.i, label %_ZN10__cxxabiv112_GLOBAL__N_114st_cxa_cleanupD2Ev.exit.i, !llvm.loop !17

.body:                                            ; preds = %.lr.ph.i
  %38 = landingpad { ptr, i32 }
          cleanup
  call fastcc void @_ZN10__cxxabiv112_GLOBAL__N_114st_cxa_cleanupD2Ev(ptr noundef nonnull align 8 dereferenceable(33) %9) #12
  call void @llvm.lifetime.end.p0(i64 40, ptr nonnull %9) #12
  call void @llvm.lifetime.end.p0(i64 8, ptr nonnull %8) #12
  invoke void %6(ptr noundef nonnull %19)
          to label %_ZN10__cxxabiv112_GLOBAL__N_114st_heap_block2D2Ev.exit unwind label %24

_ZN10__cxxabiv112_GLOBAL__N_114st_cxa_cleanupD2Ev.exit.i: ; preds = %33, %28
  call void @llvm.lifetime.end.p0(i64 40, ptr nonnull %9) #12
  call void @llvm.lifetime.end.p0(i64 8, ptr nonnull %8) #12
  br label %_ZN10__cxxabiv112_GLOBAL__N_114st_heap_block2D2Ev.exit25

_ZN10__cxxabiv112_GLOBAL__N_114st_heap_block2D2Ev.exit25: ; preds = %_ZN10__cxxabiv112_GLOBAL__N_114st_cxa_cleanupD2Ev.exit.i, %27, %_ZN10__cxxabiv112_GLOBAL__N_134calculate_allocation_size_or_throwEmmm.exit
  %.0 = phi ptr [ null, %_ZN10__cxxabiv112_GLOBAL__N_134calculate_allocation_size_or_throwEmmm.exit ], [ %.1, %27 ], [ %.1, %_ZN10__cxxabiv112_GLOBAL__N_114st_cxa_cleanupD2Ev.exit.i ]
  ret ptr %.0
}